target datalayout = "e-m:e-p270:32:32-p271:32:32-p272:64:64-i64:64-i128:128-f80:128-n8:16:32:64-S128"
target triple = "x86_64-pc-linux-gnu"

%union.pthread_mutex_t = type { %struct.__pthread_mutex_s }
%struct.__pthread_mutex_s = type { i32, i32, i32, i32, i32, i16, i16, %struct.__pthread_internal_list }
%struct.__pthread_internal_list = type { ptr, ptr }
%struct.pmix_tma = type { ptr, ptr, ptr, ptr, ptr, ptr, ptr, ptr }
%union.pthread_cond_t = type { %struct.__pthread_cond_s }
%struct.__pthread_cond_s = type { %union.__atomic_wide_counter, %union.__atomic_wide_counter, [2 x i32], [2 x i32], i32, i32, [2 x i32] }
%union.__atomic_wide_counter = type { i64 }
%struct.pmix_list_t = type { %struct.pmix_object_t, %struct.pmix_list_item_t, i64 }
%struct.pmix_object_t = type { %union.pthread_mutex_t, ptr, i32, %struct.pmix_tma }
%struct.pmix_list_item_t = type { %struct.pmix_object_t, ptr, ptr, i32 }
%struct.pmix_lock_t = type { i32, %struct.pmix_mutex_t, %union.pthread_cond_t, i8 }
%struct.pmix_mutex_t = type { %struct.pmix_object_t, %union.pthread_mutex_t }
%struct.prte_odls_globals_t = type { i32, %struct.pmix_list_t, ptr, i32, i32, i32, ptr, ptr, i32, i8, %struct.pmix_lock_t, ptr }

@prte_event_base = external global ptr, align 8

; Function Attrs: inlinehint nounwind uwtable
define internal void @pmix_mutex_unlock(ptr noundef %0) #2 {
  %2 = alloca ptr, align 8
  store ptr %0, ptr %2, align 8, !tbaa !34
  %3 = load ptr, ptr %2, align 8, !tbaa !34
  %4 = getelementptr inbounds nuw %struct.pmix_mutex_t, ptr %3, i32 0, i32 1
  %5 = call i32 @pthread_mutex_unlock(ptr noundef %4) #13
  ret void
}

; Function Attrs: inlinehint nounwind uwtable
define internal void @pmix_atomic_wmb() #2 {
  fence release
  ret void
}

; Function Attrs: inlinehint nounwind uwtable
define internal void @pmix_atomic_rmb() #2 {
  fence acquire
  ret void
}

; Function Attrs: inlinehint nounwind uwtable
define internal void @pmix_mutex_lock(ptr noundef %0) #2 {
  %2 = alloca ptr, align 8
  store ptr %0, ptr %2, align 8, !tbaa !34
  %3 = load ptr, ptr %2, align 8, !tbaa !34
  %4 = getelementptr inbounds nuw %struct.pmix_mutex_t, ptr %3, i32 0, i32 1
  %5 = call i32 @pthread_mutex_lock(ptr noundef %4) #13
  ret void
}

; Function Attrs: nounwind uwtable
define void @prte_odls_base_harvest_threads() #0 {
  %1 = alloca i32, align 4
  call void @llvm.lifetime.start.p0(i64 4, ptr %1) #13
  br label %2

2:                                                ; preds = %0
  call void @pmix_mutex_lock(ptr noundef getelementptr inbounds nuw (%struct.pmix_lock_t, ptr getelementptr inbounds nuw (%struct.prte_odls_globals_t, ptr @prte_odls_globals, i32 0, i32 10), i32 0, i32 1))
  br label %3

3:                                                ; preds = %6, %2
  %4 = load volatile i8, ptr getelementptr inbounds nuw (%struct.pmix_lock_t, ptr getelementptr inbounds nuw (%struct.prte_odls_globals_t, ptr @prte_odls_globals, i32 0, i32 10), i32 0, i32 3), align 8, !tbaa !3, !range !22, !noundef !23
  %5 = trunc i8 %4 to i1
  br i1 %5, label %6, label %8

6:                                                ; preds = %3
  %7 = call i32 @pthread_cond_wait(ptr noundef getelementptr inbounds nuw (%struct.pmix_lock_t, ptr getelementptr inbounds nuw (%struct.prte_odls_globals_t, ptr @prte_odls_globals, i32 0, i32 10), i32 0, i32 2), ptr noundef getelementptr inbounds nuw (%struct.pmix_mutex_t, ptr getelementptr inbounds nuw (%struct.pmix_lock_t, ptr getelementptr inbounds nuw (%struct.prte_odls_globals_t, ptr @prte_odls_globals, i32 0, i32 10), i32 0, i32 1), i32 0, i32 1))
  br label %3, !llvm.loop !24

8:                                                ; preds = %3
  call void @pmix_atomic_rmb()
  store volatile i8 1, ptr getelementptr inbounds nuw (%struct.pmix_lock_t, ptr getelementptr inbounds nuw (%struct.prte_odls_globals_t, ptr @prte_odls_globals, i32 0, i32 10), i32 0, i32 3), align 8, !tbaa !3
  br label %9

9:                                                ; preds = %8
  br label %10

10:                                               ; preds = %9
  %11 = load i32, ptr getelementptr inbounds nuw (%struct.prte_odls_globals_t, ptr @prte_odls_globals, i32 0, i32 4), align 4, !tbaa !26
  %12 = icmp slt i32 0, %11
  br i1 %12, label %13, label %46

13:                                               ; preds = %10
  %14 = load ptr, ptr getelementptr inbounds nuw (%struct.prte_odls_globals_t, ptr @prte_odls_globals, i32 0, i32 7), align 8, !tbaa !27
  %15 = icmp ne ptr null, %14
  br i1 %15, label %16, label %35

16:                                               ; preds = %13
  store i32 0, ptr %1, align 4, !tbaa !28
  br label %17

17:                                               ; preds = %31, %16
  %18 = load ptr, ptr getelementptr inbounds nuw (%struct.prte_odls_globals_t, ptr @prte_odls_globals, i32 0, i32 7), align 8, !tbaa !27
  %19 = load i32, ptr %1, align 4, !tbaa !28
  %20 = sext i32 %19 to i64
  %21 = getelementptr inbounds ptr, ptr %18, i64 %20
  %22 = load ptr, ptr %21, align 8, !tbaa !29
  %23 = icmp ne ptr null, %22
  br i1 %23, label %24, label %34

24:                                               ; preds = %17
  %25 = load ptr, ptr getelementptr inbounds nuw (%struct.prte_odls_globals_t, ptr @prte_odls_globals, i32 0, i32 7), align 8, !tbaa !27
  %26 = load i32, ptr %1, align 4, !tbaa !28
  %27 = sext i32 %26 to i64
  %28 = getelementptr inbounds ptr, ptr %25, i64 %27
  %29 = load ptr, ptr %28, align 8, !tbaa !29
  %30 = call i32 @prte_progress_thread_finalize(ptr noundef %29)
  br label %31

31:                                               ; preds = %24
  %32 = load i32, ptr %1, align 4, !tbaa !28
  %33 = add nsw i32 %32, 1
  store i32 %33, ptr %1, align 4, !tbaa !28
  br label %17, !llvm.loop !30

34:                                               ; preds = %17
  br label %35

35:                                               ; preds = %34, %13
  %36 = load ptr, ptr getelementptr inbounds nuw (%struct.prte_odls_globals_t, ptr @prte_odls_globals, i32 0, i32 6), align 8, !tbaa !31
  call void @free(ptr noundef %36) #13
  %37 = call noalias ptr @malloc(i64 noundef 8) #14
  store ptr %37, ptr getelementptr inbounds nuw (%struct.prte_odls_globals_t, ptr @prte_odls_globals, i32 0, i32 6), align 8, !tbaa !31
  %38 = load ptr, ptr @prte_event_base, align 8, !tbaa !32
  %39 = load ptr, ptr getelementptr inbounds nuw (%struct.prte_odls_globals_t, ptr @prte_odls_globals, i32 0, i32 6), align 8, !tbaa !31
  %40 = getelementptr inbounds ptr, ptr %39, i64 0
  store ptr %38, ptr %40, align 8, !tbaa !32
  store i32 0, ptr getelementptr inbounds nuw (%struct.prte_odls_globals_t, ptr @prte_odls_globals, i32 0, i32 4), align 4, !tbaa !26
  %41 = load ptr, ptr getelementptr inbounds nuw (%struct.prte_odls_globals_t, ptr @prte_odls_globals, i32 0, i32 7), align 8, !tbaa !27
  %42 = icmp ne ptr null, %41
  br i1 %42, label %43, label %45

43:                                               ; preds = %35
  %44 = load ptr, ptr getelementptr inbounds nuw (%struct.prte_odls_globals_t, ptr @prte_odls_globals, i32 0, i32 7), align 8, !tbaa !27
  call void @PMIx_Argv_free(ptr noundef %44)
  store ptr null, ptr getelementptr inbounds nuw (%struct.prte_odls_globals_t, ptr @prte_odls_globals, i32 0, i32 7), align 8, !tbaa !27
  br label %45

45:                                               ; preds = %43, %35
  br label %46

46:                                               ; preds = %45, %10
  br label %47

47:                                               ; preds = %46
  store volatile i8 0, ptr getelementptr inbounds nuw (%struct.pmix_lock_t, ptr getelementptr inbounds nuw (%struct.prte_odls_globals_t, ptr @prte_odls_globals, i32 0, i32 10), i32 0, i32 3), align 8, !tbaa !3
  call void @pmix_atomic_wmb()
  %48 = call i32 @pthread_cond_broadcast(ptr noundef getelementptr inbounds nuw (%struct.pmix_lock_t, ptr getelementptr inbounds nuw (%struct.prte_odls_globals_t, ptr @prte_odls_globals, i32 0, i32 10), i32 0, i32 2)) #13
  call void @pmix_mutex_unlock(ptr noundef getelementptr inbounds nuw (%struct.pmix_lock_t, ptr getelementptr inbounds nuw (%struct.prte_odls_globals_t, ptr @prte_odls_globals, i32 0, i32 10), i32 0, i32 1))
  br label %49

49:                                               ; preds = %47
  br label %50

50:                                               ; preds = %49
  call void @llvm.lifetime.end.p0(i64 4, ptr %1) #13
  ret void
}