; Function Attrs: nounwind uwtable
define void @prte_odls_base_harvest_threads() local_unnamed_addr #0 {
  %1 = tail call i32 @pthread_mutex_lock(ptr noundef nonnull getelementptr inbounds nuw (i8, ptr @prte_odls_globals, i64 456)) #13
  %2 = load volatile i8, ptr getelementptr inbounds nuw (i8, ptr @prte_odls_globals, i64 544), align 8, !tbaa !3, !range !22, !noundef !23
  %3 = trunc nuw i8 %2 to i1
  br i1 %3, label %.lr.ph, label %._crit_edge

.lr.ph:                                           ; preds = %0, %.lr.ph
  %4 = tail call i32 @pthread_cond_wait(ptr noundef nonnull getelementptr inbounds nuw (i8, ptr @prte_odls_globals, i64 496), ptr noundef nonnull getelementptr inbounds nuw (i8, ptr @prte_odls_globals, i64 456)) #13
  %5 = load volatile i8, ptr getelementptr inbounds nuw (i8, ptr @prte_odls_globals, i64 544), align 8, !tbaa !3, !range !22, !noundef !23
  %6 = trunc nuw i8 %5 to i1
  br i1 %6, label %.lr.ph, label %._crit_edge, !llvm.loop !24

._crit_edge:                                      ; preds = %.lr.ph, %0
  fence acquire
  store volatile i8 1, ptr getelementptr inbounds nuw (i8, ptr @prte_odls_globals, i64 544), align 8, !tbaa !3
  %7 = load i32, ptr getelementptr inbounds nuw (i8, ptr @prte_odls_globals, i64 292), align 4, !tbaa !26
  %8 = icmp sgt i32 %7, 0
  br i1 %8, label %9, label %22

9:                                                ; preds = %._crit_edge
  %10 = load ptr, ptr getelementptr inbounds nuw (i8, ptr @prte_odls_globals, i64 312), align 8, !tbaa !27
  %.not = icmp eq ptr %10, null
  br i1 %.not, label %.loopexit, label %.preheader

.preheader:                                       ; preds = %9
  %11 = load ptr, ptr %10, align 8, !tbaa !28
  %.not57 = icmp eq ptr %11, null
  br i1 %.not57, label %.loopexit, label %.lr.ph9

.lr.ph9:                                          ; preds = %.preheader, %.lr.ph9
  %indvars.iv = phi i64 [ %indvars.iv.next, %.lr.ph9 ], [ 0, %.preheader ]
  %12 = phi ptr [ %16, %.lr.ph9 ], [ %11, %.preheader ]
  %13 = tail call i32 @prte_progress_thread_finalize(ptr noundef nonnull %12) #13
  %indvars.iv.next = add nuw nsw i64 %indvars.iv, 1
  %14 = load ptr, ptr getelementptr inbounds nuw (i8, ptr @prte_odls_globals, i64 312), align 8, !tbaa !27
  %15 = getelementptr inbounds nuw ptr, ptr %14, i64 %indvars.iv.next
  %16 = load ptr, ptr %15, align 8, !tbaa !28
  %.not5 = icmp eq ptr %16, null
  br i1 %.not5, label %.loopexit, label %.lr.ph9, !llvm.loop !29

.loopexit:                                        ; preds = %.lr.ph9, %.preheader, %9
  %17 = load ptr, ptr getelementptr inbounds nuw (i8, ptr @prte_odls_globals, i64 304), align 8, !tbaa !30
  tail call void @free(ptr noundef %17) #13
  %18 = tail call noalias dereferenceable_or_null(8) ptr @malloc(i64 noundef 8) #14
  store ptr %18, ptr getelementptr inbounds nuw (i8, ptr @prte_odls_globals, i64 304), align 8, !tbaa !30
  %19 = load ptr, ptr @prte_event_base, align 8, !tbaa !31
  store ptr %19, ptr %18, align 8, !tbaa !31
  store i32 0, ptr getelementptr inbounds nuw (i8, ptr @prte_odls_globals, i64 292), align 4, !tbaa !26
  %20 = load ptr, ptr getelementptr inbounds nuw (i8, ptr @prte_odls_globals, i64 312), align 8, !tbaa !27
  %.not6 = icmp eq ptr %20, null
  br i1 %.not6, label %22, label %21

21:                                               ; preds = %.loopexit
  tail call void @PMIx_Argv_free(ptr noundef nonnull %20) #13
  store ptr null, ptr getelementptr inbounds nuw (i8, ptr @prte_odls_globals, i64 312), align 8, !tbaa !27
  br label %22

22:                                               ; preds = %._crit_edge, %21, %.loopexit
  store volatile i8 0, ptr getelementptr inbounds nuw (i8, ptr @prte_odls_globals, i64 544), align 8, !tbaa !3
  fence release
  %23 = tail call i32 @pthread_cond_broadcast(ptr noundef nonnull getelementptr inbounds nuw (i8, ptr @prte_odls_globals, i64 496)) #13
  %24 = tail call i32 @pthread_mutex_unlock(ptr noundef nonnull getelementptr inbounds nuw (i8, ptr @prte_odls_globals, i64 456)) #13
  ret void
}